target datalayout = "e-m:e-p270:32:32-p271:32:32-p272:64:64-i64:64-i128:128-f80:128-n8:16:32:64-S128"
target triple = "x86_64-pc-linux-gnu"

; Function Attrs: nounwind uwtable
define hidden i32 @EC_POINT_point2cbb(ptr noundef %0, ptr noundef %1, ptr noundef %2, i32 noundef %3, ptr noundef %4) #0 {
  %6 = alloca i32, align 4
  %7 = alloca ptr, align 8
  %8 = alloca ptr, align 8
  %9 = alloca ptr, align 8
  %10 = alloca i32, align 4
  %11 = alloca ptr, align 8
  %12 = alloca i64, align 8
  %13 = alloca i32, align 4
  %14 = alloca ptr, align 8
  store ptr %0, ptr %7, align 8, !tbaa !32
  store ptr %1, ptr %8, align 8, !tbaa !6
  store ptr %2, ptr %9, align 8, !tbaa !11
  store i32 %3, ptr %10, align 4, !tbaa !28
  store ptr %4, ptr %11, align 8, !tbaa !17
  call void @llvm.lifetime.start.p0(i64 8, ptr %12) #3
  %15 = load ptr, ptr %8, align 8, !tbaa !6
  %16 = load ptr, ptr %9, align 8, !tbaa !11
  %17 = load i32, ptr %10, align 4, !tbaa !28
  %18 = load ptr, ptr %11, align 8, !tbaa !17
  %19 = call i64 @EC_POINT_point2oct(ptr noundef %15, ptr noundef %16, i32 noundef %17, ptr noundef null, i64 noundef 0, ptr noundef %18)
  store i64 %19, ptr %12, align 8, !tbaa !15
  %20 = load i64, ptr %12, align 8, !tbaa !15
  %21 = icmp eq i64 %20, 0
  br i1 %21, label %22, label %23

22:                                               ; preds = %5
  store i32 0, ptr %6, align 4
  store i32 1, ptr %13, align 4
  br label %41

23:                                               ; preds = %5
  call void @llvm.lifetime.start.p0(i64 8, ptr %14) #3
  %24 = load ptr, ptr %7, align 8, !tbaa !32
  %25 = load i64, ptr %12, align 8, !tbaa !15
  %26 = call i32 @CBB_add_space(ptr noundef %24, ptr noundef %14, i64 noundef %25)
  %27 = icmp ne i32 %26, 0
  br i1 %27, label %28, label %38

28:                                               ; preds = %23
  %29 = load ptr, ptr %8, align 8, !tbaa !6
  %30 = load ptr, ptr %9, align 8, !tbaa !11
  %31 = load i32, ptr %10, align 4, !tbaa !28
  %32 = load ptr, ptr %14, align 8, !tbaa !13
  %33 = load i64, ptr %12, align 8, !tbaa !15
  %34 = load ptr, ptr %11, align 8, !tbaa !17
  %35 = call i64 @EC_POINT_point2oct(ptr noundef %29, ptr noundef %30, i32 noundef %31, ptr noundef %32, i64 noundef %33, ptr noundef %34)
  %36 = load i64, ptr %12, align 8, !tbaa !15
  %37 = icmp eq i64 %35, %36
  br label %38

38:                                               ; preds = %28, %23
  %39 = phi i1 [ false, %23 ], [ %37, %28 ]
  %40 = zext i1 %39 to i32
  store i32 %40, ptr %6, align 4
  store i32 1, ptr %13, align 4
  call void @llvm.lifetime.end.p0(i64 8, ptr %14) #3
  br label %41

41:                                               ; preds = %38, %22
  call void @llvm.lifetime.end.p0(i64 8, ptr %12) #3
  %42 = load i32, ptr %6, align 4
  ret i32 %42
}