; Function Attrs: nounwind uwtable
define hidden range(i32 0, 2) i32 @EC_POINT_point2cbb(ptr noundef %0, ptr noundef %1, ptr noundef %2, i32 noundef %3, ptr noundef %4) local_unnamed_addr #0 {
  %6 = alloca ptr, align 8
  %7 = tail call i64 @EC_POINT_point2oct(ptr noundef %1, ptr noundef %2, i32 noundef %3, ptr noundef null, i64 noundef 0, ptr noundef %4)
  %8 = icmp eq i64 %7, 0
  br i1 %8, label %18, label %9

9:                                                ; preds = %5
  call void @llvm.lifetime.start.p0(i64 8, ptr nonnull %6) #3
  %10 = call i32 @CBB_add_space(ptr noundef %0, ptr noundef nonnull %6, i64 noundef %7) #3
  %.not = icmp eq i32 %10, 0
  br i1 %.not, label %16, label %11

11:                                               ; preds = %9
  %12 = load ptr, ptr %6, align 8, !tbaa !20
  %13 = call i64 @EC_POINT_point2oct(ptr noundef %1, ptr noundef %2, i32 noundef %3, ptr noundef %12, i64 noundef %7, ptr noundef %4)
  %14 = icmp eq i64 %13, %7
  %15 = zext i1 %14 to i32
  br label %16

16:                                               ; preds = %11, %9
  %17 = phi i32 [ 0, %9 ], [ %15, %11 ]
  call void @llvm.lifetime.end.p0(i64 8, ptr nonnull %6) #3
  br label %18

18:                                               ; preds = %5, %16
  %.0 = phi i32 [ %17, %16 ], [ 0, %5 ]
  ret i32 %.0
}